target datalayout = "e-m:e-p270:32:32-p271:32:32-p272:64:64-i64:64-i128:128-f80:128-n8:16:32:64-S128"
target triple = "x86_64-pc-linux-gnu"

%"class.std::__cxx11::basic_string" = type { %"struct.std::__cxx11::basic_string<char>::_Alloc_hider", i64, %union.anon }
%"struct.std::__cxx11::basic_string<char>::_Alloc_hider" = type { ptr }
%union.anon = type { i64, [8 x i8] }
%"struct.casadi::Options" = type { %"class.std::vector", %"class.std::map" }
%"class.std::vector" = type { %"struct.std::_Vector_base" }
%"struct.std::_Vector_base" = type { %"struct.std::_Vector_base<const casadi::Options *, std::allocator<const casadi::Options *>>::_Vector_impl" }
%"struct.std::_Vector_base<const casadi::Options *, std::allocator<const casadi::Options *>>::_Vector_impl" = type { %"struct.std::_Vector_base<const casadi::Options *, std::allocator<const casadi::Options *>>::_Vector_impl_data" }
%"struct.std::_Vector_base<const casadi::Options *, std::allocator<const casadi::Options *>>::_Vector_impl_data" = type { ptr, ptr, ptr }
%"class.std::map" = type { %"class.std::_Rb_tree" }
%"class.std::_Rb_tree" = type { %"struct.std::_Rb_tree<std::__cxx11::basic_string<char>, std::pair<const std::__cxx11::basic_string<char>, casadi::Options::Entry>, std::_Select1st<std::pair<const std::__cxx11::basic_string<char>, casadi::Options::Entry>>, std::less<std::__cxx11::basic_string<char>>>::_Rb_tree_impl" }
%"struct.std::_Rb_tree<std::__cxx11::basic_string<char>, std::pair<const std::__cxx11::basic_string<char>, casadi::Options::Entry>, std::_Select1st<std::pair<const std::__cxx11::basic_string<char>, casadi::Options::Entry>>, std::less<std::__cxx11::basic_string<char>>>::_Rb_tree_impl" = type { %"struct.std::_Rb_tree_key_compare", %"struct.std::_Rb_tree_header" }
%"struct.std::_Rb_tree_key_compare" = type { %"struct.std::less" }
%"struct.std::less" = type { i8 }
%"struct.std::_Rb_tree_header" = type { %"struct.std::_Rb_tree_node_base", i64 }
%"struct.std::_Rb_tree_node_base" = type { i32, ptr, ptr, ptr }
%"struct.casadi::PluginInterface<casadi::Interpolant>::Plugin" = type { ptr, ptr, ptr, i32, %"struct.casadi::Interpolant::Exposed", ptr, ptr }
%"struct.casadi::Interpolant::Exposed" = type { ptr }

@.str = private unnamed_addr constant [7 x i8] c"linear\00", align 1
@_ZN6casadi17LinearInterpolant8meta_docB5cxx11E = external global %"class.std::__cxx11::basic_string", align 8
@_ZN6casadi17LinearInterpolant8options_E = global %"struct.casadi::Options" zeroinitializer, align 8

; Function Attrs: mustprogress nounwind uwtable
define i32 @casadi_register_interpolant_linear(ptr noundef %0) #4 {
  %2 = alloca ptr, align 8
  store ptr %0, ptr %2, align 8
  %3 = load ptr, ptr %2, align 8
  %4 = getelementptr inbounds %"struct.casadi::PluginInterface<casadi::Interpolant>::Plugin", ptr %3, i32 0, i32 0
  store ptr @_ZN6casadi17LinearInterpolant7creatorERKNSt7__cxx1112basic_stringIcSt11char_traitsIcESaIcEEERKSt6vectorIdSaIdEERKS9_IxSaIxEESD_x, ptr %4, align 8
  %5 = load ptr, ptr %2, align 8
  %6 = getelementptr inbounds %"struct.casadi::PluginInterface<casadi::Interpolant>::Plugin", ptr %5, i32 0, i32 1
  store ptr @.str, ptr %6, align 8
  %7 = call noundef ptr @_ZNKSt7__cxx1112basic_stringIcSt11char_traitsIcESaIcEE5c_strEv(ptr noundef nonnull align 8 dereferenceable(32) @_ZN6casadi17LinearInterpolant8meta_docB5cxx11E) #3
  %8 = load ptr, ptr %2, align 8
  %9 = getelementptr inbounds %"struct.casadi::PluginInterface<casadi::Interpolant>::Plugin", ptr %8, i32 0, i32 2
  store ptr %7, ptr %9, align 8
  %10 = load ptr, ptr %2, align 8
  %11 = getelementptr inbounds %"struct.casadi::PluginInterface<casadi::Interpolant>::Plugin", ptr %10, i32 0, i32 3
  store i32 31, ptr %11, align 8
  %12 = load ptr, ptr %2, align 8
  %13 = getelementptr inbounds %"struct.casadi::PluginInterface<casadi::Interpolant>::Plugin", ptr %12, i32 0, i32 5
  store ptr @_ZN6casadi17LinearInterpolant8options_E, ptr %13, align 8
  %14 = load ptr, ptr %2, align 8
  %15 = getelementptr inbounds %"struct.casadi::PluginInterface<casadi::Interpolant>::Plugin", ptr %14, i32 0, i32 6
  store ptr @_ZN6casadi17LinearInterpolant11deserializeERNS_19DeserializingStreamE, ptr %15, align 8
  %16 = load ptr, ptr %2, align 8
  %17 = getelementptr inbounds %"struct.casadi::PluginInterface<casadi::Interpolant>::Plugin", ptr %16, i32 0, i32 4
  %18 = getelementptr inbounds %"struct.casadi::Interpolant::Exposed", ptr %17, i32 0, i32 0
  store ptr @_ZN6casadi17LinearInterpolant9do_inlineERKNSt7__cxx1112basic_stringIcSt11char_traitsIcESaIcEEERKSt6vectorIdSaIdEERKS9_IxSaIxEESD_xRKSt3mapIS6_NS_11GenericTypeESt4lessIS6_ESaISt4pairIS7_SJ_EEE, ptr %18, align 8
  ret i32 0
}